target datalayout = "e-m:e-p270:32:32-p271:32:32-p272:64:64-i64:64-i128:128-f80:128-n8:16:32:64-S128"
target triple = "x86_64-pc-linux-gnu"

; Function Attrs: nounwind uwtable
define internal zeroext i8 @suspend(ptr noundef %0, ptr noundef %1) #0 {
  %3 = alloca i8, align 1
  %4 = alloca ptr, align 8
  %5 = alloca ptr, align 8
  %6 = alloca i32, align 4
  %7 = alloca ptr, align 8
  store ptr %0, ptr %4, align 8
  store ptr %1, ptr %5, align 8
  %8 = call ptr @getEnv()
  %9 = load ptr, ptr %4, align 8
  %10 = call ptr @inStream_readThreadRef(ptr noundef %8, ptr noundef %9)
  store ptr %10, ptr %7, align 8
  %11 = load ptr, ptr %4, align 8
  %12 = call zeroext i16 @inStream_error(ptr noundef %11)
  %13 = icmp ne i16 %12, 0
  br i1 %13, label %14, label %15

14:                                               ; preds = %2
  store i8 1, ptr %3, align 1
  br label %31

15:                                               ; preds = %2
  %16 = load ptr, ptr %7, align 8
  %17 = call zeroext i8 @threadControl_isDebugThread(ptr noundef %16)
  %18 = icmp ne i8 %17, 0
  br i1 %18, label %19, label %21

19:                                               ; preds = %15
  %20 = load ptr, ptr %5, align 8
  call void @outStream_setError(ptr noundef %20, i16 noundef zeroext 10)
  store i8 1, ptr %3, align 1
  br label %31

21:                                               ; preds = %15
  %22 = load ptr, ptr %7, align 8
  %23 = call i32 @threadControl_suspendThread(ptr noundef %22, i8 noundef zeroext 0)
  store i32 %23, ptr %6, align 4
  %24 = load i32, ptr %6, align 4
  %25 = icmp ne i32 %24, 0
  br i1 %25, label %26, label %30

26:                                               ; preds = %21
  %27 = load ptr, ptr %5, align 8
  %28 = load i32, ptr %6, align 4
  %29 = call zeroext i16 @map2jdwpError(i32 noundef %28)
  call void @outStream_setError(ptr noundef %27, i16 noundef zeroext %29)
  br label %30

30:                                               ; preds = %26, %21
  store i8 1, ptr %3, align 1
  br label %31

31:                                               ; preds = %30, %19, %14
  %32 = load i8, ptr %3, align 1
  ret i8 %32
}