; Function Attrs: nounwind uwtable
define internal noundef zeroext i8 @suspend(ptr noundef %0, ptr noundef %1) #0 {
  %3 = tail call ptr @getEnv() #4
  %4 = tail call ptr @inStream_readThreadRef(ptr noundef %3, ptr noundef %0) #4
  %5 = tail call zeroext i16 @inStream_error(ptr noundef %0) #4
  %.not = icmp eq i16 %5, 0
  br i1 %.not, label %6, label %12

6:                                                ; preds = %2
  %7 = tail call zeroext i8 @threadControl_isDebugThread(ptr noundef %4) #4
  %.not8 = icmp eq i8 %7, 0
  br i1 %.not8, label %8, label %.sink.split

8:                                                ; preds = %6
  %9 = tail call i32 @threadControl_suspendThread(ptr noundef %4, i8 noundef zeroext 0) #4
  %.not9 = icmp eq i32 %9, 0
  br i1 %.not9, label %12, label %10

10:                                               ; preds = %8
  %11 = tail call zeroext i16 @map2jdwpError(i32 noundef %9) #4
  br label %.sink.split

.sink.split:                                      ; preds = %6, %10
  %.sink = phi i16 [ %11, %10 ], [ 10, %6 ]
  tail call void @outStream_setError(ptr noundef %1, i16 noundef zeroext %.sink) #4
  br label %12

12:                                               ; preds = %.sink.split, %8, %2
  ret i8 1
}